target datalayout = "e-m:e-p270:32:32-p271:32:32-p272:64:64-i64:64-i128:128-f80:128-n8:16:32:64-S128"
target triple = "x86_64-pc-linux-gnu"

%struct._header_field_info = type { ptr, ptr, i32, i32, ptr, i64, ptr, i32, i32, i32, i32, ptr }

@.str.2 = private unnamed_addr constant [39 x i8] c"(?:^ *| *\\|\\| *| +or +| *$)(?![^(]*\\))\00", align 1

; Function Attrs: null_pointer_is_valid sspstrong uwtable
define hidden zeroext i1 @column_prefs_custom_display_details(ptr noundef %0) #1 {
  %2 = alloca ptr, align 8
  %3 = alloca ptr, align 8
  %4 = alloca ptr, align 8
  %5 = alloca i8, align 1
  %6 = alloca i32, align 4
  %7 = alloca i32, align 4
  store ptr %0, ptr %2, align 8
  call void @llvm.lifetime.start.p0(i64 8, ptr %3) #9
  call void @llvm.lifetime.start.p0(i64 8, ptr %4) #9
  call void @llvm.lifetime.start.p0(i64 1, ptr %5) #9
  store i8 0, ptr %5, align 1
  %8 = load ptr, ptr %2, align 8
  %9 = call ptr @g_regex_split_simple(ptr noundef @.str.2, ptr noundef %8, i32 noundef 2048, i32 noundef 0)
  store ptr %9, ptr %3, align 8
  call void @llvm.lifetime.start.p0(i64 4, ptr %6) #9
  store i32 0, ptr %6, align 4
  br label %10

10:                                               ; preds = %50, %1
  %11 = load i32, ptr %6, align 4
  %12 = load ptr, ptr %3, align 8
  %13 = call i32 @g_strv_length(ptr noundef %12)
  %14 = icmp ult i32 %11, %13
  br i1 %14, label %16, label %15

15:                                               ; preds = %10
  store i32 2, ptr %7, align 4
  br label %53

16:                                               ; preds = %10
  %17 = load ptr, ptr %3, align 8
  %18 = load i32, ptr %6, align 4
  %19 = zext i32 %18 to i64
  %20 = getelementptr ptr, ptr %17, i64 %19
  %21 = load ptr, ptr %20, align 8
  %22 = icmp ne ptr %21, null
  br i1 %22, label %23, label %49

23:                                               ; preds = %16
  %24 = load ptr, ptr %3, align 8
  %25 = load i32, ptr %6, align 4
  %26 = zext i32 %25 to i64
  %27 = getelementptr ptr, ptr %24, i64 %26
  %28 = load ptr, ptr %27, align 8
  %29 = load i8, ptr %28, align 1
  %30 = sext i8 %29 to i32
  %31 = icmp ne i32 %30, 0
  br i1 %31, label %32, label %49

32:                                               ; preds = %23
  %33 = load ptr, ptr %3, align 8
  %34 = load i32, ptr %6, align 4
  %35 = zext i32 %34 to i64
  %36 = getelementptr ptr, ptr %33, i64 %35
  %37 = load ptr, ptr %36, align 8
  %38 = call ptr @proto_registrar_get_byname(ptr noundef %37)
  store ptr %38, ptr %4, align 8
  %39 = load ptr, ptr %4, align 8
  %40 = icmp ne ptr %39, null
  br i1 %40, label %41, label %48

41:                                               ; preds = %32
  %42 = load ptr, ptr %4, align 8
  %43 = getelementptr inbounds nuw %struct._header_field_info, ptr %42, i32 0, i32 3
  %44 = load i32, ptr %43, align 4
  %45 = and i32 %44, 8192
  %46 = icmp ne i32 %45, 0
  br i1 %46, label %48, label %47

47:                                               ; preds = %41
  store i8 1, ptr %5, align 1
  store i32 2, ptr %7, align 4
  br label %53

48:                                               ; preds = %41, %32
  br label %49

49:                                               ; preds = %48, %23, %16
  br label %50

50:                                               ; preds = %49
  %51 = load i32, ptr %6, align 4
  %52 = add i32 %51, 1
  store i32 %52, ptr %6, align 4
  br label %10, !llvm.loop !12

53:                                               ; preds = %47, %15
  call void @llvm.lifetime.end.p0(i64 4, ptr %6) #9
  br label %54

54:                                               ; preds = %53
  %55 = load ptr, ptr %3, align 8
  call void @g_strfreev(ptr noundef %55)
  %56 = load i8, ptr %5, align 1, !range !6, !noundef !7
  %57 = trunc i8 %56 to i1
  store i32 1, ptr %7, align 4
  call void @llvm.lifetime.end.p0(i64 1, ptr %5) #9
  call void @llvm.lifetime.end.p0(i64 8, ptr %4) #9
  call void @llvm.lifetime.end.p0(i64 8, ptr %3) #9
  ret i1 %57
}