; Function Attrs: null_pointer_is_valid sspstrong uwtable
define hidden noundef zeroext i1 @column_prefs_custom_display_details(ptr noundef %0) local_unnamed_addr #1 {
  %2 = tail call ptr @g_regex_split_simple(ptr noundef nonnull @.str.2, ptr noundef %0, i32 noundef 2048, i32 noundef 0)
  %3 = tail call i32 @g_strv_length(ptr noundef %2)
  %.not22 = icmp eq i32 %3, 0
  br i1 %.not22, label %._crit_edge, label %.lr.ph

.lr.ph:                                           ; preds = %1, %14
  %indvars.iv = phi i64 [ %indvars.iv.next, %14 ], [ 0, %1 ]
  %4 = getelementptr ptr, ptr %2, i64 %indvars.iv
  %5 = load ptr, ptr %4, align 8
  %.not = icmp eq ptr %5, null
  br i1 %.not, label %14, label %6

6:                                                ; preds = %.lr.ph
  %7 = load i8, ptr %5, align 1
  %.not16 = icmp eq i8 %7, 0
  br i1 %.not16, label %14, label %8

8:                                                ; preds = %6
  %9 = tail call ptr @proto_registrar_get_byname(ptr noundef nonnull %5)
  %.not17 = icmp eq ptr %9, null
  br i1 %.not17, label %14, label %10

10:                                               ; preds = %8
  %11 = getelementptr inbounds nuw i8, ptr %9, i64 20
  %12 = load i32, ptr %11, align 4
  %13 = and i32 %12, 8192
  %.not18 = icmp eq i32 %13, 0
  br i1 %.not18, label %._crit_edge, label %14

14:                                               ; preds = %.lr.ph, %6, %10, %8
  %indvars.iv.next = add nuw nsw i64 %indvars.iv, 1
  %15 = tail call i32 @g_strv_length(ptr noundef %2)
  %16 = zext i32 %15 to i64
  %17 = icmp samesign ult i64 %indvars.iv.next, %16
  br i1 %17, label %.lr.ph, label %._crit_edge, !llvm.loop !10

._crit_edge:                                      ; preds = %14, %10, %1
  %.lcssa = phi i1 [ false, %1 ], [ true, %10 ], [ false, %14 ]
  tail call void @g_strfreev(ptr noundef %2)
  ret i1 %.lcssa
}